target datalayout = "e-m:e-p270:32:32-p271:32:32-p272:64:64-i64:64-i128:128-f80:128-n8:16:32:64-S128"
target triple = "x86_64-pc-linux-gnu"

%struct.RBasic = type { i64, i64 }
%struct.RString = type { %struct.RBasic, i64, %union.anon }
%union.anon = type { %struct.anon.1 }
%struct.anon.1 = type { ptr, %union.anon.2 }
%union.anon.2 = type { i64 }
%struct.anon.3 = type { [1 x i8] }
%struct.npn_select_cb_common_args = type { i64, ptr, i32 }

@ID_callback_state = internal global i64 0, align 8
@ossl_ssl_ex_ptr_idx = internal global i32 0, align 4
@id_i_npn_select_cb = internal global i64 0, align 8

; Function Attrs: inlinehint nounwind sspstrong willreturn memory(read) uwtable
define internal i64 @RB_FL_TEST_RAW(i64 noundef %0, i64 noundef %1) #1 {
  %3 = alloca i64, align 8
  %4 = alloca i64, align 8
  store i64 %0, ptr %3, align 8, !tbaa !14
  store i64 %1, ptr %4, align 8, !tbaa !14
  %5 = load i64, ptr %3, align 8, !tbaa !14
  %6 = inttoptr i64 %5 to ptr
  %7 = getelementptr inbounds nuw %struct.RBasic, ptr %6, i32 0, i32 0
  %8 = load i64, ptr %7, align 8, !tbaa !52
  %9 = load i64, ptr %4, align 8, !tbaa !14
  %10 = and i64 %8, %9
  ret i64 %10
}

; Function Attrs: inlinehint nounwind sspstrong willreturn memory(read) uwtable
define internal zeroext i1 @RB_FL_ANY_RAW(i64 noundef %0, i64 noundef %1) #1 {
  %3 = alloca i64, align 8
  %4 = alloca i64, align 8
  store i64 %0, ptr %3, align 8, !tbaa !14
  store i64 %1, ptr %4, align 8, !tbaa !14
  %5 = load i64, ptr %3, align 8, !tbaa !14
  %6 = load i64, ptr %4, align 8, !tbaa !14
  %7 = call i64 @RB_FL_TEST_RAW(i64 noundef %5, i64 noundef %6) #21
  %8 = icmp ne i64 %7, 0
  ret i1 %8
}

; Function Attrs: inlinehint nounwind sspstrong willreturn memory(read, argmem: readwrite) uwtable
define internal void @rbimpl_rstring_getmem(ptr dead_on_unwind noalias writable sret(%struct.RString) align 8 %0, i64 noundef %1) #12 {
  %3 = alloca i64, align 8
  store i64 %1, ptr %3, align 8, !tbaa !14
  %4 = load i64, ptr %3, align 8, !tbaa !14
  %5 = call zeroext i1 @RB_FL_ANY_RAW(i64 noundef %4, i64 noundef 8192) #21
  br i1 %5, label %6, label %9

6:                                                ; preds = %2
  %7 = load i64, ptr %3, align 8, !tbaa !14
  %8 = inttoptr i64 %7 to ptr
  call void @llvm.memcpy.p0.p0.i64(ptr align 8 %0, ptr align 8 %8, i64 40, i1 false), !tbaa.struct !56
  br label %20

9:                                                ; preds = %2
  %10 = load i64, ptr %3, align 8, !tbaa !14
  %11 = call i64 @RSTRING_LEN(i64 noundef %10) #21
  %12 = getelementptr inbounds nuw %struct.RString, ptr %0, i32 0, i32 1
  store i64 %11, ptr %12, align 8, !tbaa !54
  %13 = load i64, ptr %3, align 8, !tbaa !14
  %14 = inttoptr i64 %13 to ptr
  %15 = getelementptr inbounds nuw %struct.RString, ptr %14, i32 0, i32 2
  %16 = getelementptr inbounds nuw %struct.anon.3, ptr %15, i32 0, i32 0
  %17 = getelementptr inbounds [1 x i8], ptr %16, i64 0, i64 0
  %18 = getelementptr inbounds nuw %struct.RString, ptr %0, i32 0, i32 2
  %19 = getelementptr inbounds nuw %struct.anon.1, ptr %18, i32 0, i32 0
  store ptr %17, ptr %19, align 8, !tbaa !53
  br label %20

20:                                               ; preds = %9, %6
  ret void
}

; Function Attrs: inlinehint nounwind sspstrong willreturn memory(none) uwtable
define internal i64 @RB_INT2FIX(i64 noundef %0) #9 {
  %2 = alloca i64, align 8
  %3 = alloca i64, align 8
  %4 = alloca i64, align 8
  %5 = alloca i64, align 8
  %6 = alloca i64, align 8
  %7 = alloca i64, align 8
  store i64 %0, ptr %2, align 8, !tbaa !14
  call void @llvm.lifetime.start.p0(i64 8, ptr %3) #20
  %8 = load i64, ptr %2, align 8, !tbaa !14
  store i64 %8, ptr %3, align 8, !tbaa !14
  call void @llvm.lifetime.start.p0(i64 8, ptr %4) #20
  %9 = load i64, ptr %3, align 8, !tbaa !14
  %10 = shl i64 %9, 1
  %11 = add i64 %10, 1
  store i64 %11, ptr %4, align 8, !tbaa !14
  call void @llvm.lifetime.start.p0(i64 8, ptr %5) #20
  %12 = load i64, ptr %4, align 8, !tbaa !14
  store i64 %12, ptr %5, align 8, !tbaa !14
  call void @llvm.lifetime.start.p0(i64 8, ptr %6) #20
  %13 = load i64, ptr %5, align 8, !tbaa !14
  store i64 %13, ptr %6, align 8, !tbaa !14
  call void @llvm.lifetime.start.p0(i64 8, ptr %7) #20
  %14 = load i64, ptr %6, align 8, !tbaa !14
  store i64 %14, ptr %7, align 8, !tbaa !14
  %15 = load i64, ptr %7, align 8, !tbaa !14
  call void @llvm.lifetime.end.p0(i64 8, ptr %7) #20
  call void @llvm.lifetime.end.p0(i64 8, ptr %6) #20
  call void @llvm.lifetime.end.p0(i64 8, ptr %5) #20
  call void @llvm.lifetime.end.p0(i64 8, ptr %4) #20
  call void @llvm.lifetime.end.p0(i64 8, ptr %3) #20
  ret i64 %15
}

; Function Attrs: inlinehint nounwind sspstrong willreturn memory(read) uwtable
define internal i64 @RSTRING_LEN(i64 noundef %0) #1 {
  %2 = alloca i64, align 8
  store i64 %0, ptr %2, align 8, !tbaa !14
  %3 = load i64, ptr %2, align 8, !tbaa !14
  %4 = inttoptr i64 %3 to ptr
  %5 = getelementptr inbounds nuw %struct.RString, ptr %4, i32 0, i32 1
  %6 = load i64, ptr %5, align 8, !tbaa !54
  ret i64 %6
}

; Function Attrs: inlinehint nounwind sspstrong uwtable
define internal ptr @RSTRING_PTR(i64 noundef %0) #4 {
  %2 = alloca i64, align 8
  %3 = alloca ptr, align 8
  %4 = alloca %struct.RString, align 8
  store i64 %0, ptr %2, align 8, !tbaa !14
  call void @llvm.lifetime.start.p0(i64 8, ptr %3) #20
  %5 = load i64, ptr %2, align 8, !tbaa !14
  call void @rbimpl_rstring_getmem(ptr dead_on_unwind writable sret(%struct.RString) align 8 %4, i64 noundef %5) #25
  %6 = getelementptr inbounds nuw %struct.RString, ptr %4, i32 0, i32 2
  %7 = getelementptr inbounds nuw %struct.anon.1, ptr %6, i32 0, i32 0
  %8 = load ptr, ptr %7, align 8, !tbaa !53
  store ptr %8, ptr %3, align 8, !tbaa !16
  %9 = load ptr, ptr %3, align 8, !tbaa !16
  call void @llvm.lifetime.end.p0(i64 8, ptr %3) #20
  ret ptr %9
}

; Function Attrs: inlinehint nounwind sspstrong uwtable
define internal i64 @rb_int2num_inline(i32 noundef %0) #4 {
  %2 = alloca i64, align 8
  %3 = alloca i32, align 4
  store i32 %0, ptr %3, align 4, !tbaa !12
  %4 = load i32, ptr %3, align 4, !tbaa !12
  %5 = sext i32 %4 to i64
  %6 = icmp slt i64 %5, 4611686018427387904
  br i1 %6, label %7, label %15

7:                                                ; preds = %1
  %8 = load i32, ptr %3, align 4, !tbaa !12
  %9 = sext i32 %8 to i64
  %10 = icmp sge i64 %9, -4611686018427387904
  br i1 %10, label %11, label %15

11:                                               ; preds = %7
  %12 = load i32, ptr %3, align 4, !tbaa !12
  %13 = sext i32 %12 to i64
  %14 = call i64 @RB_INT2FIX(i64 noundef %13) #23
  store i64 %14, ptr %2, align 8
  br label %19

15:                                               ; preds = %7, %1
  %16 = load i32, ptr %3, align 4, !tbaa !12
  %17 = sext i32 %16 to i64
  %18 = call i64 @rb_int2big(i64 noundef %17)
  store i64 %18, ptr %2, align 8
  br label %19

19:                                               ; preds = %15, %11
  %20 = load i64, ptr %2, align 8
  ret i64 %20
}

; Function Attrs: nounwind sspstrong uwtable
define internal i32 @ssl_npn_select_cb_common(ptr noundef %0, i64 noundef %1, ptr noundef %2, ptr noundef %3, ptr noundef %4, i32 noundef %5) #0 {
  %7 = alloca i32, align 4
  %8 = alloca ptr, align 8
  %9 = alloca i64, align 8
  %10 = alloca ptr, align 8
  %11 = alloca ptr, align 8
  %12 = alloca ptr, align 8
  %13 = alloca i32, align 4
  %14 = alloca i64, align 8
  %15 = alloca i32, align 4
  %16 = alloca %struct.npn_select_cb_common_args, align 8
  %17 = alloca i64, align 8
  %18 = alloca i32, align 4
  store ptr %0, ptr %8, align 8, !tbaa !10
  store i64 %1, ptr %9, align 8, !tbaa !14
  store ptr %2, ptr %10, align 8, !tbaa !80
  store ptr %3, ptr %11, align 8, !tbaa !16
  store ptr %4, ptr %12, align 8, !tbaa !16
  store i32 %5, ptr %13, align 4, !tbaa !12
  call void @llvm.lifetime.start.p0(i64 8, ptr %14) #20
  call void @llvm.lifetime.start.p0(i64 4, ptr %15) #20
  call void @llvm.lifetime.start.p0(i64 24, ptr %16) #20
  %19 = load i64, ptr %9, align 8, !tbaa !14
  %20 = getelementptr inbounds nuw %struct.npn_select_cb_common_args, ptr %16, i32 0, i32 0
  store i64 %19, ptr %20, align 8, !tbaa !92
  %21 = load ptr, ptr %12, align 8, !tbaa !16
  %22 = getelementptr inbounds nuw %struct.npn_select_cb_common_args, ptr %16, i32 0, i32 1
  store ptr %21, ptr %22, align 8, !tbaa !94
  %23 = load i32, ptr %13, align 4, !tbaa !12
  %24 = getelementptr inbounds nuw %struct.npn_select_cb_common_args, ptr %16, i32 0, i32 2
  store i32 %23, ptr %24, align 8, !tbaa !95
  %25 = ptrtoint ptr %16 to i64
  %26 = call i64 @rb_protect(ptr noundef @npn_select_cb_common_i, i64 noundef %25, ptr noundef %15)
  store i64 %26, ptr %14, align 8, !tbaa !14
  %27 = load i32, ptr %15, align 4, !tbaa !12
  %28 = icmp ne i32 %27, 0
  br i1 %28, label %29, label %39

29:                                               ; preds = %6
  call void @llvm.lifetime.start.p0(i64 8, ptr %17) #20
  %30 = load ptr, ptr %8, align 8, !tbaa !10
  %31 = load i32, ptr @ossl_ssl_ex_ptr_idx, align 4, !tbaa !12
  %32 = call ptr @SSL_get_ex_data(ptr noundef %30, i32 noundef %31)
  %33 = ptrtoint ptr %32 to i64
  store i64 %33, ptr %17, align 8, !tbaa !14
  %34 = load i64, ptr %17, align 8, !tbaa !14
  %35 = load i64, ptr @ID_callback_state, align 8, !tbaa !14
  %36 = load i32, ptr %15, align 4, !tbaa !12
  %37 = call i64 @rb_int2num_inline(i32 noundef %36)
  %38 = call i64 @rb_ivar_set(i64 noundef %34, i64 noundef %35, i64 noundef %37)
  store i32 2, ptr %7, align 4
  store i32 1, ptr %18, align 4
  call void @llvm.lifetime.end.p0(i64 8, ptr %17) #20
  br label %47

39:                                               ; preds = %6
  %40 = load i64, ptr %14, align 8, !tbaa !14
  %41 = call ptr @RSTRING_PTR(i64 noundef %40)
  %42 = load ptr, ptr %10, align 8, !tbaa !80
  store ptr %41, ptr %42, align 8, !tbaa !16
  %43 = load i64, ptr %14, align 8, !tbaa !14
  %44 = call i64 @RSTRING_LEN(i64 noundef %43) #21
  %45 = trunc i64 %44 to i8
  %46 = load ptr, ptr %11, align 8, !tbaa !16
  store i8 %45, ptr %46, align 1, !tbaa !53
  store i32 0, ptr %7, align 4
  store i32 1, ptr %18, align 4
  br label %47

47:                                               ; preds = %39, %29
  call void @llvm.lifetime.end.p0(i64 24, ptr %16) #20
  call void @llvm.lifetime.end.p0(i64 4, ptr %15) #20
  call void @llvm.lifetime.end.p0(i64 8, ptr %14) #20
  %48 = load i32, ptr %7, align 4
  ret i32 %48
}

; Function Attrs: nounwind sspstrong uwtable
define internal i32 @ssl_npn_select_cb(ptr noundef %0, ptr noundef %1, ptr noundef %2, ptr noundef %3, i32 noundef %4, ptr noundef %5) #0 {
  %7 = alloca ptr, align 8
  %8 = alloca ptr, align 8
  %9 = alloca ptr, align 8
  %10 = alloca ptr, align 8
  %11 = alloca i32, align 4
  %12 = alloca ptr, align 8
  %13 = alloca i64, align 8
  %14 = alloca i64, align 8
  store ptr %0, ptr %7, align 8, !tbaa !10
  store ptr %1, ptr %8, align 8, !tbaa !80
  store ptr %2, ptr %9, align 8, !tbaa !16
  store ptr %3, ptr %10, align 8, !tbaa !16
  store i32 %4, ptr %11, align 4, !tbaa !12
  store ptr %5, ptr %12, align 8, !tbaa !6
  call void @llvm.lifetime.start.p0(i64 8, ptr %13) #20
  call void @llvm.lifetime.start.p0(i64 8, ptr %14) #20
  %15 = load ptr, ptr %12, align 8, !tbaa !6
  %16 = ptrtoint ptr %15 to i64
  store i64 %16, ptr %13, align 8, !tbaa !14
  %17 = load i64, ptr %13, align 8, !tbaa !14
  %18 = load i64, ptr @id_i_npn_select_cb, align 8, !tbaa !14
  %19 = call i64 @rb_attr_get(i64 noundef %17, i64 noundef %18)
  store i64 %19, ptr %14, align 8, !tbaa !14
  %20 = load ptr, ptr %7, align 8, !tbaa !10
  %21 = load i64, ptr %14, align 8, !tbaa !14
  %22 = load ptr, ptr %8, align 8, !tbaa !80
  %23 = load ptr, ptr %9, align 8, !tbaa !16
  %24 = load ptr, ptr %10, align 8, !tbaa !16
  %25 = load i32, ptr %11, align 4, !tbaa !12
  %26 = call i32 @ssl_npn_select_cb_common(ptr noundef %20, i64 noundef %21, ptr noundef %22, ptr noundef %23, ptr noundef %24, i32 noundef %25)
  call void @llvm.lifetime.end.p0(i64 8, ptr %14) #20
  call void @llvm.lifetime.end.p0(i64 8, ptr %13) #20
  ret i32 %26
}